
GccApplication1.elf:     file format elf32-avr

Sections:
Idx Name          Size      VMA       LMA       File off  Algn
  0 .data         00000000  00803f00  00803f00  00000348  2**0
                  CONTENTS, ALLOC, LOAD, DATA
  1 .text         000002f4  00000000  00000000  00000054  2**1
                  CONTENTS, ALLOC, LOAD, READONLY, CODE
  2 .comment      00000030  00000000  00000000  00000348  2**0
                  CONTENTS, READONLY
  3 .note.gnu.avr.deviceinfo 0000003c  00000000  00000000  00000378  2**2
                  CONTENTS, READONLY
  4 .debug_info   00001566  00000000  00000000  000003b4  2**0
                  CONTENTS, READONLY, DEBUGGING
  5 .debug_abbrev 0000143e  00000000  00000000  0000191a  2**0
                  CONTENTS, READONLY, DEBUGGING
  6 .debug_line   00000136  00000000  00000000  00002d58  2**0
                  CONTENTS, READONLY, DEBUGGING
  7 .debug_str    00000921  00000000  00000000  00002e8e  2**0
                  CONTENTS, READONLY, DEBUGGING

Disassembly of section .text:

00000000 <__vectors>:
   0:	19 c0       	rjmp	.+50     	; 0x34 <__ctors_end>
   2:	20 c0       	rjmp	.+64     	; 0x44 <__bad_interrupt>
   4:	1f c0       	rjmp	.+62     	; 0x44 <__bad_interrupt>
   6:	1e c0       	rjmp	.+60     	; 0x44 <__bad_interrupt>
   8:	1d c0       	rjmp	.+58     	; 0x44 <__bad_interrupt>
   a:	1c c0       	rjmp	.+56     	; 0x44 <__bad_interrupt>
   c:	1b c0       	rjmp	.+54     	; 0x44 <__bad_interrupt>
   e:	1a c0       	rjmp	.+52     	; 0x44 <__bad_interrupt>
  10:	19 c0       	rjmp	.+50     	; 0x44 <__bad_interrupt>
  12:	18 c0       	rjmp	.+48     	; 0x44 <__bad_interrupt>
  14:	17 c0       	rjmp	.+46     	; 0x44 <__bad_interrupt>
  16:	16 c0       	rjmp	.+44     	; 0x44 <__bad_interrupt>
  18:	15 c0       	rjmp	.+42     	; 0x44 <__bad_interrupt>
  1a:	14 c0       	rjmp	.+40     	; 0x44 <__bad_interrupt>
  1c:	13 c0       	rjmp	.+38     	; 0x44 <__bad_interrupt>
  1e:	12 c0       	rjmp	.+36     	; 0x44 <__bad_interrupt>
  20:	11 c0       	rjmp	.+34     	; 0x44 <__bad_interrupt>
  22:	10 c0       	rjmp	.+32     	; 0x44 <__bad_interrupt>
  24:	0f c0       	rjmp	.+30     	; 0x44 <__bad_interrupt>
  26:	0e c0       	rjmp	.+28     	; 0x44 <__bad_interrupt>
  28:	0d c0       	rjmp	.+26     	; 0x44 <__bad_interrupt>
  2a:	0c c0       	rjmp	.+24     	; 0x44 <__bad_interrupt>
  2c:	0b c0       	rjmp	.+22     	; 0x44 <__bad_interrupt>
  2e:	0a c0       	rjmp	.+20     	; 0x44 <__bad_interrupt>
  30:	09 c0       	rjmp	.+18     	; 0x44 <__bad_interrupt>
  32:	08 c0       	rjmp	.+16     	; 0x44 <__bad_interrupt>

00000034 <__ctors_end>:
  34:	11 24       	eor	r1, r1
  36:	1f be       	out	0x3f, r1	; 63
  38:	cf ef       	ldi	r28, 0xFF	; 255
  3a:	cd bf       	out	0x3d, r28	; 61
  3c:	df e3       	ldi	r29, 0x3F	; 63
  3e:	de bf       	out	0x3e, r29	; 62
  40:	f9 d0       	rcall	.+498    	; 0x234 <main>
  42:	56 c1       	rjmp	.+684    	; 0x2f0 <_exit>

00000044 <__bad_interrupt>:
  44:	dd cf       	rjmp	.-70     	; 0x0 <__vectors>

00000046 <init>:
  46:	cf 93       	push	r28
  48:	df 93       	push	r29
  4a:	a0 ea       	ldi	r26, 0xA0	; 160
  4c:	b0 e0       	ldi	r27, 0x00	; 0
  4e:	8c 91       	ld	r24, X
  50:	82 60       	ori	r24, 0x02	; 2
  52:	8c 93       	st	X, r24
  54:	11 96       	adiw	r26, 0x01	; 1
  56:	8c 91       	ld	r24, X
  58:	11 97       	sbiw	r26, 0x01	; 1
  5a:	81 60       	ori	r24, 0x01	; 1
  5c:	11 96       	adiw	r26, 0x01	; 1
  5e:	8c 93       	st	X, r24
  60:	11 97       	sbiw	r26, 0x01	; 1
  62:	8c e1       	ldi	r24, 0x1C	; 28
  64:	8a 95       	dec	r24
  66:	f1 f7       	brne	.-4      	; 0x64 <init+0x1e>
  68:	e0 e0       	ldi	r30, 0x00	; 0
  6a:	f4 e0       	ldi	r31, 0x04	; 4
  6c:	86 89       	ldd	r24, Z+22	; 0x16
  6e:	88 7f       	andi	r24, 0xF8	; 248
  70:	86 8b       	std	Z+22, r24	; 0x16
  72:	86 89       	ldd	r24, Z+22	; 0x16
  74:	84 60       	ori	r24, 0x04	; 4
  76:	86 8b       	std	Z+22, r24	; 0x16
  78:	86 89       	ldd	r24, Z+22	; 0x16
  7a:	87 7f       	andi	r24, 0xF7	; 247
  7c:	86 8b       	std	Z+22, r24	; 0x16
  7e:	c0 e8       	ldi	r28, 0x80	; 128
  80:	d6 e0       	ldi	r29, 0x06	; 6
  82:	19 82       	std	Y+1, r1	; 0x01
  84:	88 81       	ld	r24, Y
  86:	81 60       	ori	r24, 0x01	; 1
  88:	88 83       	st	Y, r24
  8a:	88 81       	ld	r24, Y
  8c:	80 64       	ori	r24, 0x40	; 64
  8e:	88 83       	st	Y, r24
  90:	80 81       	ld	r24, Z
  92:	8c 60       	ori	r24, 0x0C	; 12
  94:	80 83       	st	Z, r24
  96:	84 81       	ldd	r24, Z+4	; 0x04
  98:	8c 60       	ori	r24, 0x0C	; 12
  9a:	84 83       	std	Z+4, r24	; 0x04
  9c:	80 e1       	ldi	r24, 0x10	; 16
  9e:	82 83       	std	Z+2, r24	; 0x02
  a0:	81 89       	ldd	r24, Z+17	; 0x11
  a2:	88 7f       	andi	r24, 0xF8	; 248
  a4:	84 60       	ori	r24, 0x04	; 4
  a6:	81 8b       	std	Z+17, r24	; 0x11
  a8:	85 89       	ldd	r24, Z+21	; 0x15
  aa:	88 7f       	andi	r24, 0xF8	; 248
  ac:	84 60       	ori	r24, 0x04	; 4
  ae:	85 8b       	std	Z+21, r24	; 0x15
  b0:	87 89       	ldd	r24, Z+23	; 0x17
  b2:	88 7f       	andi	r24, 0xF8	; 248
  b4:	84 60       	ori	r24, 0x04	; 4
  b6:	87 8b       	std	Z+23, r24	; 0x17
  b8:	e0 e0       	ldi	r30, 0x00	; 0
  ba:	f6 e0       	ldi	r31, 0x06	; 6
  bc:	80 81       	ld	r24, Z
  be:	80 83       	st	Z, r24
  c0:	86 e0       	ldi	r24, 0x06	; 6
  c2:	81 83       	std	Z+1, r24	; 0x01
  c4:	82 81       	ldd	r24, Z+2	; 0x02
  c6:	8f 72       	andi	r24, 0x2F	; 47
  c8:	80 61       	ori	r24, 0x10	; 16
  ca:	82 83       	std	Z+2, r24	; 0x02
  cc:	8c 91       	ld	r24, X
  ce:	80 63       	ori	r24, 0x30	; 48
  d0:	8c 93       	st	X, r24
  d2:	11 96       	adiw	r26, 0x01	; 1
  d4:	8c 91       	ld	r24, X
  d6:	11 97       	sbiw	r26, 0x01	; 1
  d8:	82 60       	ori	r24, 0x02	; 2
  da:	11 96       	adiw	r26, 0x01	; 1
  dc:	8c 93       	st	X, r24
  de:	82 81       	ldd	r24, Z+2	; 0x02
  e0:	86 60       	ori	r24, 0x06	; 6
  e2:	82 83       	std	Z+2, r24	; 0x02
  e4:	82 81       	ldd	r24, Z+2	; 0x02
  e6:	87 60       	ori	r24, 0x07	; 7
  e8:	82 83       	std	Z+2, r24	; 0x02
  ea:	86 81       	ldd	r24, Z+6	; 0x06
  ec:	80 7e       	andi	r24, 0xE0	; 224
  ee:	85 60       	ori	r24, 0x05	; 5
  f0:	86 83       	std	Z+6, r24	; 0x06
  f2:	80 81       	ld	r24, Z
  f4:	81 60       	ori	r24, 0x01	; 1
  f6:	80 83       	st	Z, r24
  f8:	e0 e2       	ldi	r30, 0x20	; 32
  fa:	f4 e0       	ldi	r31, 0x04	; 4
  fc:	80 81       	ld	r24, Z
  fe:	87 7f       	andi	r24, 0xF7	; 247
 100:	80 83       	st	Z, r24
 102:	80 81       	ld	r24, Z
 104:	84 60       	ori	r24, 0x04	; 4
 106:	80 83       	st	Z, r24
 108:	e0 e0       	ldi	r30, 0x00	; 0
 10a:	f8 e0       	ldi	r31, 0x08	; 8
 10c:	86 eb       	ldi	r24, 0xB6	; 182
 10e:	92 e0       	ldi	r25, 0x02	; 2
 110:	80 87       	std	Z+8, r24	; 0x08
 112:	91 87       	std	Z+9, r25	; 0x09
 114:	80 e4       	ldi	r24, 0x40	; 64
 116:	86 83       	std	Z+6, r24	; 0x06
 118:	86 81       	ldd	r24, Z+6	; 0x06
 11a:	80 68       	ori	r24, 0x80	; 128
 11c:	86 83       	std	Z+6, r24	; 0x06
 11e:	df 91       	pop	r29
 120:	cf 91       	pop	r28
 122:	08 95       	ret

00000124 <LedR>:
 124:	88 23       	and	r24, r24
 126:	21 f0       	breq	.+8      	; 0x130 <LedR+0xc>
 128:	80 91 04 04 	lds	r24, 0x0404	; 0x800404 <__TEXT_REGION_LENGTH__+0x700404>
 12c:	87 7f       	andi	r24, 0xF7	; 247
 12e:	03 c0       	rjmp	.+6      	; 0x136 <LedR+0x12>
 130:	80 91 04 04 	lds	r24, 0x0404	; 0x800404 <__TEXT_REGION_LENGTH__+0x700404>
 134:	88 60       	ori	r24, 0x08	; 8
 136:	80 93 04 04 	sts	0x0404, r24	; 0x800404 <__TEXT_REGION_LENGTH__+0x700404>
 13a:	08 95       	ret

0000013c <LedG>:
 13c:	88 23       	and	r24, r24
 13e:	21 f0       	breq	.+8      	; 0x148 <LedG+0xc>
 140:	80 91 04 04 	lds	r24, 0x0404	; 0x800404 <__TEXT_REGION_LENGTH__+0x700404>
 144:	8b 7f       	andi	r24, 0xFB	; 251
 146:	03 c0       	rjmp	.+6      	; 0x14e <LedG+0x12>
 148:	80 91 04 04 	lds	r24, 0x0404	; 0x800404 <__TEXT_REGION_LENGTH__+0x700404>
 14c:	84 60       	ori	r24, 0x04	; 4
 14e:	80 93 04 04 	sts	0x0404, r24	; 0x800404 <__TEXT_REGION_LENGTH__+0x700404>
 152:	08 95       	ret

00000154 <USART0_sendChar>:
 154:	90 91 04 08 	lds	r25, 0x0804	; 0x800804 <__TEXT_REGION_LENGTH__+0x700804>
 158:	95 ff       	sbrs	r25, 5
 15a:	fc cf       	rjmp	.-8      	; 0x154 <USART0_sendChar>
 15c:	80 93 02 08 	sts	0x0802, r24	; 0x800802 <__TEXT_REGION_LENGTH__+0x700802>
 160:	08 95       	ret

00000162 <USART0_readChar>:
 162:	80 91 04 08 	lds	r24, 0x0804	; 0x800804 <__TEXT_REGION_LENGTH__+0x700804>
 166:	87 ff       	sbrs	r24, 7
 168:	fc cf       	rjmp	.-8      	; 0x162 <USART0_readChar>
 16a:	80 91 00 08 	lds	r24, 0x0800	; 0x800800 <__TEXT_REGION_LENGTH__+0x700800>
 16e:	08 95       	ret

00000170 <SendVoltageUart>:
 170:	1f 93       	push	r17
 172:	cf 93       	push	r28
 174:	df 93       	push	r29
 176:	cd b7       	in	r28, 0x3d	; 61
 178:	de b7       	in	r29, 0x3e	; 62
 17a:	27 97       	sbiw	r28, 0x07	; 7
 17c:	cd bf       	out	0x3d, r28	; 61
 17e:	de bf       	out	0x3e, r29	; 62
 180:	4a e0       	ldi	r20, 0x0A	; 10
 182:	be 01       	movw	r22, r28
 184:	6f 5f       	subi	r22, 0xFF	; 255
 186:	7f 4f       	sbci	r23, 0xFF	; 255
 188:	89 d0       	rcall	.+274    	; 0x29c <__utoa_ncheck>
 18a:	10 e0       	ldi	r17, 0x00	; 0
 18c:	e1 e0       	ldi	r30, 0x01	; 1
 18e:	f0 e0       	ldi	r31, 0x00	; 0
 190:	ec 0f       	add	r30, r28
 192:	fd 1f       	adc	r31, r29
 194:	e1 0f       	add	r30, r17
 196:	f1 1d       	adc	r31, r1
 198:	80 81       	ld	r24, Z
 19a:	88 23       	and	r24, r24
 19c:	19 f0       	breq	.+6      	; 0x1a4 <SendVoltageUart+0x34>
 19e:	da df       	rcall	.-76     	; 0x154 <USART0_sendChar>
 1a0:	1f 5f       	subi	r17, 0xFF	; 255
 1a2:	f4 cf       	rjmp	.-24     	; 0x18c <SendVoltageUart+0x1c>
 1a4:	8a e0       	ldi	r24, 0x0A	; 10
 1a6:	d6 df       	rcall	.-84     	; 0x154 <USART0_sendChar>
 1a8:	27 96       	adiw	r28, 0x07	; 7
 1aa:	cd bf       	out	0x3d, r28	; 61
 1ac:	de bf       	out	0x3e, r29	; 62
 1ae:	df 91       	pop	r29
 1b0:	cf 91       	pop	r28
 1b2:	1f 91       	pop	r17
 1b4:	08 95       	ret

000001b6 <SetChargingCurrent>:
 1b6:	80 93 81 06 	sts	0x0681, r24	; 0x800681 <__TEXT_REGION_LENGTH__+0x700681>
 1ba:	08 95       	ret

000001bc <GetLow>:
 1bc:	90 91 06 06 	lds	r25, 0x0606	; 0x800606 <__TEXT_REGION_LENGTH__+0x700606>
 1c0:	90 7e       	andi	r25, 0xE0	; 224
 1c2:	91 60       	ori	r25, 0x01	; 1
 1c4:	90 93 06 06 	sts	0x0606, r25	; 0x800606 <__TEXT_REGION_LENGTH__+0x700606>
 1c8:	91 e0       	ldi	r25, 0x01	; 1
 1ca:	90 93 08 06 	sts	0x0608, r25	; 0x800608 <__TEXT_REGION_LENGTH__+0x700608>
 1ce:	90 91 0b 06 	lds	r25, 0x060B	; 0x80060b <__TEXT_REGION_LENGTH__+0x70060b>
 1d2:	90 ff       	sbrs	r25, 0
 1d4:	fc cf       	rjmp	.-8      	; 0x1ce <GetLow+0x12>
 1d6:	20 91 10 06 	lds	r18, 0x0610	; 0x800610 <__TEXT_REGION_LENGTH__+0x700610>
 1da:	30 91 11 06 	lds	r19, 0x0611	; 0x800611 <__TEXT_REGION_LENGTH__+0x700611>
 1de:	90 91 08 06 	lds	r25, 0x0608	; 0x800608 <__TEXT_REGION_LENGTH__+0x700608>
 1e2:	9e 7f       	andi	r25, 0xFE	; 254
 1e4:	90 93 08 06 	sts	0x0608, r25	; 0x800608 <__TEXT_REGION_LENGTH__+0x700608>
 1e8:	a9 01       	movw	r20, r18
 1ea:	02 c0       	rjmp	.+4      	; 0x1f0 <GetLow+0x34>
 1ec:	56 95       	lsr	r21
 1ee:	47 95       	ror	r20
 1f0:	8a 95       	dec	r24
 1f2:	e2 f7       	brpl	.-8      	; 0x1ec <GetLow+0x30>
 1f4:	ca 01       	movw	r24, r20
 1f6:	08 95       	ret

000001f8 <GetHigh>:
 1f8:	90 91 06 06 	lds	r25, 0x0606	; 0x800606 <__TEXT_REGION_LENGTH__+0x700606>
 1fc:	90 7e       	andi	r25, 0xE0	; 224
 1fe:	95 60       	ori	r25, 0x05	; 5
 200:	90 93 06 06 	sts	0x0606, r25	; 0x800606 <__TEXT_REGION_LENGTH__+0x700606>
 204:	91 e0       	ldi	r25, 0x01	; 1
 206:	90 93 08 06 	sts	0x0608, r25	; 0x800608 <__TEXT_REGION_LENGTH__+0x700608>
 20a:	90 91 0b 06 	lds	r25, 0x060B	; 0x80060b <__TEXT_REGION_LENGTH__+0x70060b>
 20e:	90 ff       	sbrs	r25, 0
 210:	fc cf       	rjmp	.-8      	; 0x20a <GetHigh+0x12>
 212:	20 91 10 06 	lds	r18, 0x0610	; 0x800610 <__TEXT_REGION_LENGTH__+0x700610>
 216:	30 91 11 06 	lds	r19, 0x0611	; 0x800611 <__TEXT_REGION_LENGTH__+0x700611>
 21a:	90 91 08 06 	lds	r25, 0x0608	; 0x800608 <__TEXT_REGION_LENGTH__+0x700608>
 21e:	9e 7f       	andi	r25, 0xFE	; 254
 220:	90 93 08 06 	sts	0x0608, r25	; 0x800608 <__TEXT_REGION_LENGTH__+0x700608>
 224:	a9 01       	movw	r20, r18
 226:	02 c0       	rjmp	.+4      	; 0x22c <GetHigh+0x34>
 228:	56 95       	lsr	r21
 22a:	47 95       	ror	r20
 22c:	8a 95       	dec	r24
 22e:	e2 f7       	brpl	.-8      	; 0x228 <GetHigh+0x30>
 230:	ca 01       	movw	r24, r20
 232:	08 95       	ret

00000234 <main>:
 234:	08 df       	rcall	.-496    	; 0x46 <init>
 236:	95 df       	rcall	.-214    	; 0x162 <USART0_readChar>
 238:	c8 2f       	mov	r28, r24
 23a:	88 23       	and	r24, r24
 23c:	61 f1       	breq	.+88     	; 0x296 <main+0x62>
 23e:	89 34       	cpi	r24, 0x49	; 73
 240:	89 f0       	breq	.+34     	; 0x264 <main+0x30>
 242:	38 f4       	brcc	.+14     	; 0x252 <main+0x1e>
 244:	87 34       	cpi	r24, 0x47	; 71
 246:	91 f0       	breq	.+36     	; 0x26c <main+0x38>
 248:	88 34       	cpi	r24, 0x48	; 72
 24a:	01 f5       	brne	.+64     	; 0x28c <main+0x58>
 24c:	80 e0       	ldi	r24, 0x00	; 0
 24e:	d4 df       	rcall	.-88     	; 0x1f8 <GetHigh>
 250:	0b c0       	rjmp	.+22     	; 0x268 <main+0x34>
 252:	82 35       	cpi	r24, 0x52	; 82
 254:	99 f0       	breq	.+38     	; 0x27c <main+0x48>
 256:	84 35       	cpi	r24, 0x54	; 84
 258:	71 f3       	breq	.-36     	; 0x236 <main+0x2>
 25a:	8c 34       	cpi	r24, 0x4C	; 76
 25c:	b9 f4       	brne	.+46     	; 0x28c <main+0x58>
 25e:	80 e0       	ldi	r24, 0x00	; 0
 260:	ad df       	rcall	.-166    	; 0x1bc <GetLow>
 262:	02 c0       	rjmp	.+4      	; 0x268 <main+0x34>
 264:	7e df       	rcall	.-260    	; 0x162 <USART0_readChar>
 266:	18 c0       	rjmp	.+48     	; 0x298 <main+0x64>
 268:	83 df       	rcall	.-250    	; 0x170 <SendVoltageUart>
 26a:	e5 cf       	rjmp	.-54     	; 0x236 <main+0x2>
 26c:	7a df       	rcall	.-268    	; 0x162 <USART0_readChar>
 26e:	88 23       	and	r24, r24
 270:	11 f0       	breq	.+4      	; 0x276 <main+0x42>
 272:	81 e0       	ldi	r24, 0x01	; 1
 274:	01 c0       	rjmp	.+2      	; 0x278 <main+0x44>
 276:	80 e0       	ldi	r24, 0x00	; 0
 278:	61 df       	rcall	.-318    	; 0x13c <LedG>
 27a:	dd cf       	rjmp	.-70     	; 0x236 <main+0x2>
 27c:	72 df       	rcall	.-284    	; 0x162 <USART0_readChar>
 27e:	88 23       	and	r24, r24
 280:	11 f0       	breq	.+4      	; 0x286 <main+0x52>
 282:	81 e0       	ldi	r24, 0x01	; 1
 284:	01 c0       	rjmp	.+2      	; 0x288 <main+0x54>
 286:	80 e0       	ldi	r24, 0x00	; 0
 288:	4d df       	rcall	.-358    	; 0x124 <LedR>
 28a:	d5 cf       	rjmp	.-86     	; 0x236 <main+0x2>
 28c:	85 e4       	ldi	r24, 0x45	; 69
 28e:	62 df       	rcall	.-316    	; 0x154 <USART0_sendChar>
 290:	8c 2f       	mov	r24, r28
 292:	60 df       	rcall	.-320    	; 0x154 <USART0_sendChar>
 294:	d0 cf       	rjmp	.-96     	; 0x236 <main+0x2>
 296:	80 e0       	ldi	r24, 0x00	; 0
 298:	8e df       	rcall	.-228    	; 0x1b6 <SetChargingCurrent>
 29a:	cd cf       	rjmp	.-102    	; 0x236 <main+0x2>

0000029c <__utoa_ncheck>:
 29c:	bb 27       	eor	r27, r27

0000029e <__utoa_common>:
 29e:	fb 01       	movw	r30, r22
 2a0:	55 27       	eor	r21, r21
 2a2:	aa 27       	eor	r26, r26
 2a4:	88 0f       	add	r24, r24
 2a6:	99 1f       	adc	r25, r25
 2a8:	aa 1f       	adc	r26, r26
 2aa:	a4 17       	cp	r26, r20
 2ac:	10 f0       	brcs	.+4      	; 0x2b2 <__utoa_common+0x14>
 2ae:	a4 1b       	sub	r26, r20
 2b0:	83 95       	inc	r24
 2b2:	50 51       	subi	r21, 0x10	; 16
 2b4:	b9 f7       	brne	.-18     	; 0x2a4 <__utoa_common+0x6>
 2b6:	a0 5d       	subi	r26, 0xD0	; 208
 2b8:	aa 33       	cpi	r26, 0x3A	; 58
 2ba:	08 f0       	brcs	.+2      	; 0x2be <__utoa_common+0x20>
 2bc:	a9 5d       	subi	r26, 0xD9	; 217
 2be:	a1 93       	st	Z+, r26
 2c0:	00 97       	sbiw	r24, 0x00	; 0
 2c2:	79 f7       	brne	.-34     	; 0x2a2 <__utoa_common+0x4>
 2c4:	b1 11       	cpse	r27, r1
 2c6:	b1 93       	st	Z+, r27
 2c8:	11 92       	st	Z+, r1
 2ca:	cb 01       	movw	r24, r22
 2cc:	0c 94 68 01 	jmp	0x2d0	; 0x2d0 <strrev>

000002d0 <strrev>:
 2d0:	dc 01       	movw	r26, r24
 2d2:	fc 01       	movw	r30, r24
 2d4:	67 2f       	mov	r22, r23
 2d6:	71 91       	ld	r23, Z+
 2d8:	77 23       	and	r23, r23
 2da:	e1 f7       	brne	.-8      	; 0x2d4 <strrev+0x4>
 2dc:	32 97       	sbiw	r30, 0x02	; 2
 2de:	04 c0       	rjmp	.+8      	; 0x2e8 <strrev+0x18>
 2e0:	7c 91       	ld	r23, X
 2e2:	6d 93       	st	X+, r22
 2e4:	70 83       	st	Z, r23
 2e6:	62 91       	ld	r22, -Z
 2e8:	ae 17       	cp	r26, r30
 2ea:	bf 07       	cpc	r27, r31
 2ec:	c8 f3       	brcs	.-14     	; 0x2e0 <strrev+0x10>
 2ee:	08 95       	ret

000002f0 <_exit>:
 2f0:	f8 94       	cli

000002f2 <__stop_program>:
 2f2:	ff cf       	rjmp	.-2      	; 0x2f2 <__stop_program>
